; Function Attrs: nounwind uwtable
define void @pmix_dstor_release_tma(ptr noundef %0, ptr noundef %1) local_unnamed_addr #0 {
  %3 = getelementptr inbounds nuw i8, ptr %0, i64 8
  %4 = load ptr, ptr %3, align 8, !tbaa !201
  %.not = icmp eq ptr %4, null
  br i1 %.not, label %pmix_tma_free.exit, label %5

5:                                                ; preds = %2
  tail call fastcc void @pmix_bfrops_base_tma_value_destruct(ptr noundef %4, ptr noundef %1)
  %6 = load ptr, ptr %3, align 8, !tbaa !201
  %.not.i = icmp eq ptr %1, null
  br i1 %.not.i, label %pmix_tma_free.exit.thread, label %pmix_tma_free.exit.thread10

pmix_tma_free.exit.thread10:                      ; preds = %5
  %7 = getelementptr inbounds nuw i8, ptr %1, i64 40
  %8 = load ptr, ptr %7, align 8, !tbaa !77
  tail call void %8(ptr noundef nonnull %1, ptr noundef %6) #15
  br label %9

pmix_tma_free.exit.thread:                        ; preds = %5
  tail call void @free(ptr noundef %6) #15
  br label %12

pmix_tma_free.exit:                               ; preds = %2
  %.not.i7 = icmp eq ptr %1, null
  br i1 %.not.i7, label %12, label %9

9:                                                ; preds = %pmix_tma_free.exit.thread10, %pmix_tma_free.exit
  %10 = getelementptr inbounds nuw i8, ptr %1, i64 40
  %11 = load ptr, ptr %10, align 8, !tbaa !77
  tail call void %11(ptr noundef nonnull %1, ptr noundef nonnull %0) #15
  br label %pmix_tma_free.exit8

12:                                               ; preds = %pmix_tma_free.exit.thread, %pmix_tma_free.exit
  tail call void @free(ptr noundef nonnull %0) #15
  br label %pmix_tma_free.exit8

pmix_tma_free.exit8:                              ; preds = %9, %12
  ret void
}